; ModuleID = 'source-C-CXX/15/1144.c'
source_filename = "source-C-CXX/15/1144.c"
target datalayout = "e-m:e-p270:32:32-p271:32:32-p272:64:64-i64:64-f80:128-n8:16:32:64-S128"
target triple = "x86_64-pc-linux-gnu"

@.str = private unnamed_addr constant [3 x i8] c"%d\00", align 1

; Function Attrs: nofree nounwind sspstrong uwtable
define dso_local i32 @main(i32 %0, i8** nocapture readnone %1) local_unnamed_addr #0 {
  %3 = alloca i32, align 4
  %4 = bitcast i32* %3 to i8*
  call void @llvm.lifetime.start.p0i8(i64 4, i8* nonnull %4) #4
  %5 = call i32 (i8*, ...) @__isoc99_scanf(i8* getelementptr inbounds ([3 x i8], [3 x i8]* @.str, i64 0, i64 0), i32* nonnull %3)
  %6 = load i32, i32* %3, align 4
  %7 = add i32 %6, 9
  %8 = icmp ult i32 %7, 19
  br i1 %8, label %12, label %9

9:                                                ; preds = %2
  %10 = add i32 %6, 99
  %11 = icmp ult i32 %10, 199
  br i1 %11, label %12, label %30

12:                                               ; preds = %36, %33, %30, %9, %2
  %13 = phi i32 [ 2, %2 ], [ 3, %9 ], [ 4, %30 ], [ 5, %33 ], [ %39, %36 ]
  br label %14

14:                                               ; preds = %12, %23
  %15 = phi i32 [ %6, %12 ], [ %25, %23 ]
  %16 = phi i32 [ 1, %12 ], [ %26, %23 ]
  %17 = srem i32 %15, 10
  %18 = icmp eq i32 %17, 0
  br i1 %18, label %19, label %21

19:                                               ; preds = %14
  %20 = call i32 @putchar(i32 48)
  br label %23

21:                                               ; preds = %14
  %22 = call i32 (i8*, ...) @printf(i8* nonnull dereferenceable(1) getelementptr inbounds ([3 x i8], [3 x i8]* @.str, i64 0, i64 0), i32 %17)
  br label %23

23:                                               ; preds = %21, %19
  %24 = load i32, i32* %3, align 4, !tbaa !5
  %25 = sdiv i32 %24, 10
  store i32 %25, i32* %3, align 4, !tbaa !5
  %26 = add nuw nsw i32 %16, 1
  %27 = icmp eq i32 %26, %13
  br i1 %27, label %28, label %14, !llvm.loop !9

28:                                               ; preds = %23
  %29 = call i32 @putchar(i32 10)
  call void @llvm.lifetime.end.p0i8(i64 4, i8* nonnull %4) #4
  ret i32 0

30:                                               ; preds = %9
  %31 = add i32 %6, 999
  %32 = icmp ult i32 %31, 1999
  br i1 %32, label %12, label %33

33:                                               ; preds = %30
  %34 = add i32 %6, 9999
  %35 = icmp ult i32 %34, 19999
  br i1 %35, label %12, label %36

36:                                               ; preds = %33
  %37 = add i32 %6, 99999
  %38 = icmp ult i32 %37, 199999
  %39 = select i1 %38, i32 6, i32 7
  br label %12
}

; Function Attrs: argmemonly mustprogress nofree nosync nounwind willreturn
declare void @llvm.lifetime.start.p0i8(i64 immarg, i8* nocapture) #1

; Function Attrs: nofree nounwind
declare noundef i32 @__isoc99_scanf(i8* nocapture noundef readonly, ...) local_unnamed_addr #2

; Function Attrs: nofree nounwind
declare noundef i32 @printf(i8* nocapture noundef readonly, ...) local_unnamed_addr #2

; Function Attrs: argmemonly mustprogress nofree nosync nounwind willreturn
declare void @llvm.lifetime.end.p0i8(i64 immarg, i8* nocapture) #1

; Function Attrs: nofree nounwind
declare noundef i32 @putchar(i32 noundef) local_unnamed_addr #3


!llvm.module.flags = !{!0, !1, !2, !3}
!llvm.ident = !{!4}

!0 = !{i32 1, !"wchar_size", i32 4}
!1 = !{i32 7, !"PIC Level", i32 2}
!2 = !{i32 7, !"PIE Level", i32 2}
!3 = !{i32 7, !"uwtable", i32 1}
!4 = !{!"clang version 13.0.0"}
!5 = !{!6, !6, i64 0}
!6 = !{!"int", !7, i64 0}
!7 = !{!"omnipotent char", !8, i64 0}
!8 = !{!"Simple C/C++ TBAA"}
!9 = distinct !{!9, !10}
!10 = !{!"llvm.loop.mustprogress"}
